; Function Attrs: nounwind uwtable
define void @b2Shape_SetUserData(i64 %0, ptr noundef %1) local_unnamed_addr #0 {
  %.sroa.2.0.extract.shift = lshr i64 %0, 32
  %3 = trunc nuw i64 %.sroa.2.0.extract.shift to i32
  %4 = and i32 %3, 65535
  %5 = tail call ptr @b2GetWorld(i32 noundef %4) #10
  %6 = getelementptr i8, ptr %5, i64 1256
  %.val = load ptr, ptr %6, align 8, !tbaa !14
  %7 = shl i64 %0, 32
  %sext.i = add i64 %7, -4294967296
  %8 = ashr exact i64 %sext.i, 32
  %9 = getelementptr inbounds %struct.b2Shape, ptr %.val, i64 %8, i32 17
  store ptr %1, ptr %9, align 8, !tbaa !179
  ret void
}